target datalayout = "e-m:e-p270:32:32-p271:32:32-p272:64:64-i64:64-i128:128-f80:128-n8:16:32:64-S128"
target triple = "x86_64-pc-linux-gnu"

%struct.form_data_tag = type { ptr, i64 }

; Function Attrs: nounwind uwtable
define zeroext i1 @html_insert_form_data(ptr noundef %0, ptr noundef %1) #0 {
  %3 = alloca ptr, align 8
  %4 = alloca ptr, align 8
  %5 = alloca i8, align 1
  %6 = alloca i64, align 8
  %7 = alloca ptr, align 8
  store ptr %0, ptr %3, align 8, !tbaa !8
  store ptr %1, ptr %4, align 8, !tbaa !21
  call void @llvm.lifetime.start.p0(i64 1, ptr %5) #12
  store i8 0, ptr %5, align 1, !tbaa !23
  call void @llvm.lifetime.start.p0(i64 8, ptr %6) #12
  %8 = load ptr, ptr %4, align 8, !tbaa !21
  %9 = getelementptr inbounds nuw %struct.form_data_tag, ptr %8, i32 0, i32 1
  %10 = load i64, ptr %9, align 8, !tbaa !25
  %11 = add i64 %10, 1
  store i64 %11, ptr %6, align 8, !tbaa !28
  call void @llvm.lifetime.start.p0(i64 8, ptr %7) #12
  store ptr null, ptr %7, align 8, !tbaa !15
  %12 = load ptr, ptr %4, align 8, !tbaa !21
  %13 = getelementptr inbounds nuw %struct.form_data_tag, ptr %12, i32 0, i32 0
  %14 = load ptr, ptr %13, align 8, !tbaa !29
  %15 = load i64, ptr %6, align 8, !tbaa !28
  %16 = mul i64 %15, 8
  %17 = call ptr @cli_max_realloc(ptr noundef %14, i64 noundef %16)
  store ptr %17, ptr %7, align 8, !tbaa !15
  %18 = load ptr, ptr %7, align 8, !tbaa !15
  %19 = icmp ne ptr %18, null
  br i1 %19, label %21, label %20

20:                                               ; preds = %2
  br label %48

21:                                               ; preds = %2
  %22 = load ptr, ptr %7, align 8, !tbaa !15
  %23 = load ptr, ptr %4, align 8, !tbaa !21
  %24 = getelementptr inbounds nuw %struct.form_data_tag, ptr %23, i32 0, i32 0
  store ptr %22, ptr %24, align 8, !tbaa !29
  %25 = load ptr, ptr %3, align 8, !tbaa !8
  %26 = call ptr @cli_safer_strdup(ptr noundef %25)
  %27 = load ptr, ptr %4, align 8, !tbaa !21
  %28 = getelementptr inbounds nuw %struct.form_data_tag, ptr %27, i32 0, i32 0
  %29 = load ptr, ptr %28, align 8, !tbaa !29
  %30 = load ptr, ptr %4, align 8, !tbaa !21
  %31 = getelementptr inbounds nuw %struct.form_data_tag, ptr %30, i32 0, i32 1
  %32 = load i64, ptr %31, align 8, !tbaa !25
  %33 = getelementptr inbounds nuw ptr, ptr %29, i64 %32
  store ptr %26, ptr %33, align 8, !tbaa !8
  %34 = load ptr, ptr %4, align 8, !tbaa !21
  %35 = getelementptr inbounds nuw %struct.form_data_tag, ptr %34, i32 0, i32 0
  %36 = load ptr, ptr %35, align 8, !tbaa !29
  %37 = load ptr, ptr %4, align 8, !tbaa !21
  %38 = getelementptr inbounds nuw %struct.form_data_tag, ptr %37, i32 0, i32 1
  %39 = load i64, ptr %38, align 8, !tbaa !25
  %40 = getelementptr inbounds nuw ptr, ptr %36, i64 %39
  %41 = load ptr, ptr %40, align 8, !tbaa !8
  %42 = icmp ne ptr %41, null
  br i1 %42, label %43, label %47

43:                                               ; preds = %21
  %44 = load i64, ptr %6, align 8, !tbaa !28
  %45 = load ptr, ptr %4, align 8, !tbaa !21
  %46 = getelementptr inbounds nuw %struct.form_data_tag, ptr %45, i32 0, i32 1
  store i64 %44, ptr %46, align 8, !tbaa !25
  br label %47

47:                                               ; preds = %43, %21
  store i8 1, ptr %5, align 1, !tbaa !23
  br label %48

48:                                               ; preds = %47, %20
  %49 = load i8, ptr %5, align 1, !tbaa !23, !range !30, !noundef !31
  %50 = trunc i8 %49 to i1
  br i1 %50, label %53, label %51

51:                                               ; preds = %48
  %52 = load ptr, ptr %4, align 8, !tbaa !21
  call void @llvm.memset.p0.i64(ptr align 8 %52, i8 0, i64 16, i1 false)
  br label %53

53:                                               ; preds = %51, %48
  %54 = load i8, ptr %5, align 1, !tbaa !23, !range !30, !noundef !31
  %55 = trunc i8 %54 to i1
  call void @llvm.lifetime.end.p0(i64 8, ptr %7) #12
  call void @llvm.lifetime.end.p0(i64 8, ptr %6) #12
  call void @llvm.lifetime.end.p0(i64 1, ptr %5) #12
  ret i1 %55
}