; Function Attrs: nounwind uwtable
define noundef zeroext i1 @html_insert_form_data(ptr noundef %0, ptr noundef captures(none) %1) local_unnamed_addr #0 {
  %3 = getelementptr inbounds nuw i8, ptr %1, i64 8
  %4 = load i64, ptr %3, align 8, !tbaa !21
  %5 = add i64 %4, 1
  %6 = load ptr, ptr %1, align 8, !tbaa !24
  %7 = shl i64 %5, 3
  %8 = tail call ptr @cli_max_realloc(ptr noundef %6, i64 noundef %7) #17
  %.not = icmp ne ptr %8, null
  br i1 %.not, label %9, label %.critedge

9:                                                ; preds = %2
  store ptr %8, ptr %1, align 8, !tbaa !24
  %10 = tail call ptr @cli_safer_strdup(ptr noundef %0) #17
  %11 = load ptr, ptr %1, align 8, !tbaa !24
  %12 = load i64, ptr %3, align 8, !tbaa !21
  %13 = getelementptr inbounds nuw ptr, ptr %11, i64 %12
  store ptr %10, ptr %13, align 8, !tbaa !14
  %.not16 = icmp eq ptr %10, null
  br i1 %.not16, label %15, label %14

14:                                               ; preds = %9
  store i64 %5, ptr %3, align 8, !tbaa !21
  br label %15

.critedge:                                        ; preds = %2
  tail call void @llvm.memset.p0.i64(ptr noundef nonnull align 8 dereferenceable(16) %1, i8 0, i64 16, i1 false)
  br label %15

15:                                               ; preds = %14, %9, %.critedge
  ret i1 %.not
}